; Function Attrs: mustprogress uwtable
define internal fastcc void @_ZN4leanL10mk_pi_unitERKNS_4exprES2_(ptr dead_on_unwind noalias nonnull writable align 8 %0, ptr noundef nonnull readonly align 8 captures(none) dereferenceable(8) %1, ptr noundef nonnull readonly align 8 captures(none) dereferenceable(8) %2) unnamed_addr #0 personality ptr @__gxx_personality_v0 {
  %4 = alloca %"class.lean::expr", align 8
  %5 = load ptr, ptr %1, align 8, !tbaa !3
  %6 = getelementptr i8, ptr %5, i64 4
  %.val.i.i.i.i = load i32, ptr %6, align 4
  %.mask.i = and i32 %.val.i.i.i.i, -16777216
  %7 = icmp eq i32 %.mask.i, 117440512
  br i1 %7, label %8, label %28

8:                                                ; preds = %3
  %9 = getelementptr inbounds nuw i8, ptr %5, i64 8
  %10 = getelementptr inbounds nuw i8, ptr %5, i64 16
  call void @llvm.lifetime.start.p0(i64 8, ptr nonnull %4) #19
  %11 = getelementptr inbounds nuw i8, ptr %5, i64 24
  call fastcc void @_ZN4leanL10mk_pi_unitERKNS_4exprES2_(ptr dead_on_unwind noalias writable align 8 %4, ptr noundef nonnull align 8 dereferenceable(8) %11, ptr noundef nonnull align 8 dereferenceable(8) %2)
  invoke void @_ZN4lean5mk_piERKNS_4nameERKNS_4exprES5_NS_11binder_infoE(ptr dead_on_unwind nonnull writable sret(%"class.lean::expr") align 8 %0, ptr noundef nonnull align 8 dereferenceable(8) %9, ptr noundef nonnull align 8 dereferenceable(8) %10, ptr noundef nonnull align 8 dereferenceable(8) %4, i32 noundef 0)
          to label %12 unwind label %26

12:                                               ; preds = %8
  %13 = load ptr, ptr %4, align 8, !tbaa !3
  %14 = ptrtoint ptr %13 to i64
  %15 = and i64 %14, 1
  %.not.i.i = icmp eq i64 %15, 0
  br i1 %.not.i.i, label %16, label %_ZN4lean10object_refD2Ev.exit

16:                                               ; preds = %12
  %17 = load i32, ptr %13, align 4, !tbaa !10
  %18 = icmp sgt i32 %17, 1
  br i1 %18, label %19, label %21, !prof !13

19:                                               ; preds = %16
  %20 = add nsw i32 %17, -1
  store i32 %20, ptr %13, align 4, !tbaa !10
  br label %_ZN4lean10object_refD2Ev.exit

21:                                               ; preds = %16
  %.not.i.i.i = icmp eq i32 %17, 0
  br i1 %.not.i.i.i, label %_ZN4lean10object_refD2Ev.exit, label %22

22:                                               ; preds = %21
  invoke void @lean_dec_ref_cold(ptr noundef nonnull %13)
          to label %_ZN4lean10object_refD2Ev.exit unwind label %23

23:                                               ; preds = %22
  %24 = landingpad { ptr, i32 }
          catch ptr null
  %25 = extractvalue { ptr, i32 } %24, 0
  call void @__clang_call_terminate(ptr %25) #21
  unreachable

_ZN4lean10object_refD2Ev.exit:                    ; preds = %12, %19, %21, %22
  call void @llvm.lifetime.end.p0(i64 8, ptr nonnull %4) #19
  br label %_ZN4lean4exprC2ERKS0_.exit

26:                                               ; preds = %8
  %27 = landingpad { ptr, i32 }
          cleanup
  call void @_ZN4lean10object_refD2Ev(ptr noundef nonnull align 8 dereferenceable(8) %4) #19
  call void @llvm.lifetime.end.p0(i64 8, ptr nonnull %4) #19
  resume { ptr, i32 } %27

28:                                               ; preds = %3
  %29 = load ptr, ptr %2, align 8, !tbaa !3
  store ptr %29, ptr %0, align 8, !tbaa !3
  %30 = ptrtoint ptr %29 to i64
  %31 = and i64 %30, 1
  %.not.i.i.i7 = icmp eq i64 %31, 0
  br i1 %.not.i.i.i7, label %32, label %_ZN4lean4exprC2ERKS0_.exit

32:                                               ; preds = %28
  %.val.i.i.i.i8 = load i32, ptr %29, align 4, !tbaa !10
  %33 = icmp sgt i32 %.val.i.i.i.i8, 0
  br i1 %33, label %34, label %36, !prof !13

34:                                               ; preds = %32
  %35 = add nuw nsw i32 %.val.i.i.i.i8, 1
  store i32 %35, ptr %29, align 4, !tbaa !10
  br label %_ZN4lean4exprC2ERKS0_.exit

36:                                               ; preds = %32
  %.not.i.i.i.i = icmp eq i32 %.val.i.i.i.i8, 0
  br i1 %.not.i.i.i.i, label %_ZN4lean4exprC2ERKS0_.exit, label %37

37:                                               ; preds = %36
  tail call void @lean_inc_ref_cold(ptr noundef nonnull %29)
  br label %_ZN4lean4exprC2ERKS0_.exit

_ZN4lean4exprC2ERKS0_.exit:                       ; preds = %37, %36, %34, %28, %_ZN4lean10object_refD2Ev.exit
  ret void
}